; ModuleID = '16/841.c'
source_filename = "16/841.c"
target datalayout = "e-m:e-p270:32:32-p271:32:32-p272:64:64-i64:64-f80:128-n8:16:32:64-S128"
target triple = "x86_64-pc-linux-gnu"

@.str = private unnamed_addr constant [3 x i8] c"%d\00", align 1
@.str.1 = private unnamed_addr constant [2 x i8] c"0\00", align 1

; Function Attrs: noinline nounwind uwtable
define dso_local i32 @main() #0 {
  %1 = alloca i32, align 4
  %2 = alloca i32, align 4
  %3 = alloca i32, align 4
  %4 = alloca i32, align 4
  %5 = alloca [5 x i32], align 16
  store i32 0, i32* %1, align 4
  %6 = call i32 (i8*, ...) @__isoc99_scanf(i8* getelementptr inbounds ([3 x i8], [3 x i8]* @.str, i64 0, i64 0), i32* %2)
  %7 = load i32, i32* %2, align 4
  %8 = sdiv i32 %7, 10000
  %9 = getelementptr inbounds [5 x i32], [5 x i32]* %5, i64 0, i64 0
  store i32 %8, i32* %9, align 16
  %10 = load i32, i32* %2, align 4
  %11 = getelementptr inbounds [5 x i32], [5 x i32]* %5, i64 0, i64 0
  %12 = load i32, i32* %11, align 16
  %13 = mul nsw i32 %12, 10000
  %14 = sub nsw i32 %10, %13
  %15 = sdiv i32 %14, 1000
  %16 = getelementptr inbounds [5 x i32], [5 x i32]* %5, i64 0, i64 1
  store i32 %15, i32* %16, align 4
  %17 = load i32, i32* %2, align 4
  %18 = getelementptr inbounds [5 x i32], [5 x i32]* %5, i64 0, i64 0
  %19 = load i32, i32* %18, align 16
  %20 = mul nsw i32 %19, 10000
  %21 = sub nsw i32 %17, %20
  %22 = getelementptr inbounds [5 x i32], [5 x i32]* %5, i64 0, i64 1
  %23 = load i32, i32* %22, align 4
  %24 = mul nsw i32 %23, 1000
  %25 = sub nsw i32 %21, %24
  %26 = sdiv i32 %25, 100
  %27 = getelementptr inbounds [5 x i32], [5 x i32]* %5, i64 0, i64 2
  store i32 %26, i32* %27, align 8
  %28 = load i32, i32* %2, align 4
  %29 = getelementptr inbounds [5 x i32], [5 x i32]* %5, i64 0, i64 0
  %30 = load i32, i32* %29, align 16
  %31 = mul nsw i32 %30, 10000
  %32 = sub nsw i32 %28, %31
  %33 = getelementptr inbounds [5 x i32], [5 x i32]* %5, i64 0, i64 1
  %34 = load i32, i32* %33, align 4
  %35 = mul nsw i32 %34, 1000
  %36 = sub nsw i32 %32, %35
  %37 = getelementptr inbounds [5 x i32], [5 x i32]* %5, i64 0, i64 2
  %38 = load i32, i32* %37, align 8
  %39 = mul nsw i32 %38, 100
  %40 = sub nsw i32 %36, %39
  %41 = sdiv i32 %40, 10
  %42 = getelementptr inbounds [5 x i32], [5 x i32]* %5, i64 0, i64 3
  store i32 %41, i32* %42, align 4
  %43 = load i32, i32* %2, align 4
  %44 = getelementptr inbounds [5 x i32], [5 x i32]* %5, i64 0, i64 0
  %45 = load i32, i32* %44, align 16
  %46 = mul nsw i32 %45, 10000
  %47 = sub nsw i32 %43, %46
  %48 = getelementptr inbounds [5 x i32], [5 x i32]* %5, i64 0, i64 1
  %49 = load i32, i32* %48, align 4
  %50 = mul nsw i32 %49, 1000
  %51 = sub nsw i32 %47, %50
  %52 = getelementptr inbounds [5 x i32], [5 x i32]* %5, i64 0, i64 2
  %53 = load i32, i32* %52, align 8
  %54 = mul nsw i32 %53, 100
  %55 = sub nsw i32 %51, %54
  %56 = getelementptr inbounds [5 x i32], [5 x i32]* %5, i64 0, i64 3
  %57 = load i32, i32* %56, align 4
  %58 = mul nsw i32 %57, 10
  %59 = sub nsw i32 %55, %58
  %60 = getelementptr inbounds [5 x i32], [5 x i32]* %5, i64 0, i64 4
  store i32 %59, i32* %60, align 16
  store i32 0, i32* %3, align 4
  br label %61

61:                                               ; preds = %86, %0
  %62 = load i32, i32* %3, align 4
  %63 = icmp sle i32 %62, 4
  br i1 %63, label %64, label %89

64:                                               ; preds = %61
  %65 = load i32, i32* %3, align 4
  %66 = sext i32 %65 to i64
  %67 = getelementptr inbounds [5 x i32], [5 x i32]* %5, i64 0, i64 %66
  %68 = load i32, i32* %67, align 4
  %69 = icmp ne i32 %68, 0
  br i1 %69, label %70, label %85

70:                                               ; preds = %64
  store i32 4, i32* %4, align 4
  br label %71

71:                                               ; preds = %81, %70
  %72 = load i32, i32* %4, align 4
  %73 = load i32, i32* %3, align 4
  %74 = icmp sge i32 %72, %73
  br i1 %74, label %75, label %84

75:                                               ; preds = %71
  %76 = load i32, i32* %4, align 4
  %77 = sext i32 %76 to i64
  %78 = getelementptr inbounds [5 x i32], [5 x i32]* %5, i64 0, i64 %77
  %79 = load i32, i32* %78, align 4
  %80 = call i32 (i8*, ...) @printf(i8* getelementptr inbounds ([3 x i8], [3 x i8]* @.str, i64 0, i64 0), i32 %79)
  br label %81

81:                                               ; preds = %75
  %82 = load i32, i32* %4, align 4
  %83 = add nsw i32 %82, -1
  store i32 %83, i32* %4, align 4
  br label %71

84:                                               ; preds = %71
  br label %89

85:                                               ; preds = %64
  br label %86

86:                                               ; preds = %85
  %87 = load i32, i32* %3, align 4
  %88 = add nsw i32 %87, 1
  store i32 %88, i32* %3, align 4
  br label %61

89:                                               ; preds = %84, %61
  %90 = getelementptr inbounds [5 x i32], [5 x i32]* %5, i64 0, i64 0
  %91 = load i32, i32* %90, align 16
  %92 = getelementptr inbounds [5 x i32], [5 x i32]* %5, i64 0, i64 1
  %93 = load i32, i32* %92, align 4
  %94 = add nsw i32 %91, %93
  %95 = getelementptr inbounds [5 x i32], [5 x i32]* %5, i64 0, i64 2
  %96 = load i32, i32* %95, align 8
  %97 = add nsw i32 %94, %96
  %98 = getelementptr inbounds [5 x i32], [5 x i32]* %5, i64 0, i64 3
  %99 = load i32, i32* %98, align 4
  %100 = add nsw i32 %97, %99
  %101 = getelementptr inbounds [5 x i32], [5 x i32]* %5, i64 0, i64 4
  %102 = load i32, i32* %101, align 16
  %103 = add nsw i32 %100, %102
  %104 = icmp eq i32 %103, 0
  br i1 %104, label %105, label %107

105:                                              ; preds = %89
  %106 = call i32 (i8*, ...) @printf(i8* getelementptr inbounds ([2 x i8], [2 x i8]* @.str.1, i64 0, i64 0))
  br label %107

107:                                              ; preds = %105, %89
  ret i32 0
}

declare dso_local i32 @__isoc99_scanf(i8*, ...) #1

declare dso_local i32 @printf(i8*, ...) #1


!llvm.module.flags = !{!0}
!llvm.ident = !{!1}

!0 = !{i32 1, !"wchar_size", i32 4}
!1 = !{!"clang version 10.0.0-4ubuntu1 "}
