; ModuleID = 'source-C-CXX/15/841.c'
source_filename = "source-C-CXX/15/841.c"
target datalayout = "e-m:e-p270:32:32-p271:32:32-p272:64:64-i64:64-f80:128-n8:16:32:64-S128"
target triple = "x86_64-pc-linux-gnu"

@.str = private unnamed_addr constant [3 x i8] c"%d\00", align 1

; Function Attrs: nofree nounwind sspstrong uwtable
define dso_local i32 @main() local_unnamed_addr #0 {
  %1 = alloca i32, align 4
  %2 = alloca [5 x i32], align 16
  %3 = bitcast i32* %1 to i8*
  call void @llvm.lifetime.start.p0i8(i64 4, i8* nonnull %3) #4
  %4 = bitcast [5 x i32]* %2 to i8*
  call void @llvm.lifetime.start.p0i8(i64 20, i8* nonnull %4) #4
  %5 = call i32 (i8*, ...) @__isoc99_scanf(i8* getelementptr inbounds ([3 x i8], [3 x i8]* @.str, i64 0, i64 0), i32* nonnull %1)
  %6 = load i32, i32* %1, align 4, !tbaa !5
  %7 = sdiv i32 %6, 10000
  %8 = getelementptr inbounds [5 x i32], [5 x i32]* %2, i64 0, i64 0
  store i32 %7, i32* %8, align 16, !tbaa !5
  %9 = mul nsw i32 %7, -10000
  %10 = add i32 %9, %6
  %11 = sdiv i32 %10, 1000
  %12 = getelementptr inbounds [5 x i32], [5 x i32]* %2, i64 0, i64 1
  store i32 %11, i32* %12, align 4, !tbaa !5
  %13 = mul nsw i32 %11, -1000
  %14 = add i32 %13, %10
  %15 = sdiv i32 %14, 100
  %16 = getelementptr inbounds [5 x i32], [5 x i32]* %2, i64 0, i64 2
  store i32 %15, i32* %16, align 8, !tbaa !5
  %17 = mul nsw i32 %15, -100
  %18 = add i32 %17, %14
  %19 = sdiv i32 %18, 10
  %20 = getelementptr inbounds [5 x i32], [5 x i32]* %2, i64 0, i64 3
  store i32 %19, i32* %20, align 4, !tbaa !5
  %21 = mul nsw i32 %19, -10
  %22 = add i32 %21, %18
  %23 = getelementptr inbounds [5 x i32], [5 x i32]* %2, i64 0, i64 4
  store i32 %22, i32* %23, align 16, !tbaa !5
  %24 = add i32 %6, 9999
  %25 = icmp ult i32 %24, 19999
  br i1 %25, label %37, label %26

26:                                               ; preds = %0, %37, %49, %52, %55
  %27 = phi i1 [ true, %0 ], [ true, %37 ], [ true, %49 ], [ true, %52 ], [ false, %55 ]
  %28 = phi i64 [ 0, %0 ], [ 1, %37 ], [ 2, %49 ], [ 3, %52 ], [ 4, %55 ]
  %29 = call i32 (i8*, ...) @printf(i8* nonnull dereferenceable(1) getelementptr inbounds ([3 x i8], [3 x i8]* @.str, i64 0, i64 0), i32 %22)
  br i1 %27, label %30, label %40, !llvm.loop !9

30:                                               ; preds = %26, %30
  %31 = phi i64 [ %35, %30 ], [ 3, %26 ]
  %32 = getelementptr inbounds [5 x i32], [5 x i32]* %2, i64 0, i64 %31
  %33 = load i32, i32* %32, align 4, !tbaa !5
  %34 = call i32 (i8*, ...) @printf(i8* nonnull dereferenceable(1) getelementptr inbounds ([3 x i8], [3 x i8]* @.str, i64 0, i64 0), i32 %33)
  %35 = add nsw i64 %31, -1
  %36 = icmp ugt i64 %31, %28
  br i1 %36, label %30, label %40, !llvm.loop !9

37:                                               ; preds = %0
  %38 = add i32 %10, 999
  %39 = icmp ult i32 %38, 1999
  br i1 %39, label %49, label %26

40:                                               ; preds = %30, %26, %55
  %41 = add nsw i32 %11, %7
  %42 = add nsw i32 %41, %15
  %43 = add nsw i32 %42, %19
  %44 = sub i32 0, %22
  %45 = icmp eq i32 %43, %44
  br i1 %45, label %46, label %48

46:                                               ; preds = %40
  %47 = call i32 @putchar(i32 48)
  br label %48

48:                                               ; preds = %46, %40
  call void @llvm.lifetime.end.p0i8(i64 20, i8* nonnull %4) #4
  call void @llvm.lifetime.end.p0i8(i64 4, i8* nonnull %3) #4
  ret i32 0

49:                                               ; preds = %37
  %50 = add i32 %14, 99
  %51 = icmp ult i32 %50, 199
  br i1 %51, label %52, label %26

52:                                               ; preds = %49
  %53 = add i32 %18, 9
  %54 = icmp ult i32 %53, 19
  br i1 %54, label %55, label %26

55:                                               ; preds = %52
  %56 = icmp eq i32 %22, 0
  br i1 %56, label %40, label %26
}

; Function Attrs: argmemonly mustprogress nofree nosync nounwind willreturn
declare void @llvm.lifetime.start.p0i8(i64 immarg, i8* nocapture) #1

; Function Attrs: nofree nounwind
declare noundef i32 @__isoc99_scanf(i8* nocapture noundef readonly, ...) local_unnamed_addr #2

; Function Attrs: nofree nounwind
declare noundef i32 @printf(i8* nocapture noundef readonly, ...) local_unnamed_addr #2

; Function Attrs: argmemonly mustprogress nofree nosync nounwind willreturn
declare void @llvm.lifetime.end.p0i8(i64 immarg, i8* nocapture) #1

; Function Attrs: nofree nounwind
declare noundef i32 @putchar(i32 noundef) local_unnamed_addr #3


!llvm.module.flags = !{!0, !1, !2, !3}
!llvm.ident = !{!4}

!0 = !{i32 1, !"wchar_size", i32 4}
!1 = !{i32 7, !"PIC Level", i32 2}
!2 = !{i32 7, !"PIE Level", i32 2}
!3 = !{i32 7, !"uwtable", i32 1}
!4 = !{!"clang version 13.0.0"}
!5 = !{!6, !6, i64 0}
!6 = !{!"int", !7, i64 0}
!7 = !{!"omnipotent char", !8, i64 0}
!8 = !{!"Simple C/C++ TBAA"}
!9 = distinct !{!9, !10}
!10 = !{!"llvm.loop.mustprogress"}
